; Function Attrs: nounwind uwtable
define internal fastcc void @w_short_pstring(ptr noundef captures(none) %0, i64 noundef %1, ptr noundef nonnull %2) unnamed_addr #0 {
  %4 = getelementptr inbounds nuw i8, ptr %2, i64 24
  %5 = load ptr, ptr %4, align 8, !tbaa !15
  %6 = getelementptr inbounds nuw i8, ptr %2, i64 32
  %7 = load ptr, ptr %6, align 8, !tbaa !16
  %.not = icmp eq ptr %5, %7
  br i1 %.not, label %8, label %44

8:                                                ; preds = %3
  %9 = icmp eq ptr %5, null
  br i1 %9, label %w_reserve.exit.thread, label %10

10:                                               ; preds = %8
  %11 = load ptr, ptr %2, align 8, !tbaa !4
  %.not.i = icmp eq ptr %11, null
  %12 = getelementptr inbounds nuw i8, ptr %2, i64 40
  %13 = load ptr, ptr %12, align 8, !tbaa !14
  %14 = ptrtoint ptr %5 to i64
  %15 = ptrtoint ptr %13 to i64
  %16 = sub i64 %14, %15
  br i1 %.not.i, label %17, label %w_reserve.exit

17:                                               ; preds = %10
  %18 = getelementptr inbounds nuw i8, ptr %2, i64 16
  %19 = load ptr, ptr %18, align 8, !tbaa !18
  %20 = getelementptr i8, ptr %19, i64 16
  %.val.i = load i64, ptr %20, align 8, !tbaa !19
  %21 = icmp sgt i64 %.val.i, 16777216
  %22 = lshr i64 %.val.i, 3
  %23 = add nsw i64 %.val.i, 1024
  %.0.i = select i1 %21, i64 %22, i64 %23
  %24 = tail call i64 @llvm.smax.i64(i64 %.0.i, i64 1)
  %25 = sub i64 9223372036854775807, %.val.i
  %26 = icmp sgt i64 %24, %25
  br i1 %26, label %27, label %29

27:                                               ; preds = %17
  %28 = getelementptr inbounds nuw i8, ptr %2, i64 8
  store i32 3, ptr %28, align 8, !tbaa !24
  br label %w_reserve.exit.thread

29:                                               ; preds = %17
  %30 = add i64 %24, %.val.i
  %31 = tail call i32 @_PyBytes_Resize(ptr noundef nonnull %18, i64 noundef %30) #11
  %.not38.i = icmp eq i32 %31, 0
  br i1 %.not38.i, label %w_reserve.exit.thread10, label %32

32:                                               ; preds = %29
  tail call void @llvm.memset.p0.i64(ptr noundef nonnull align 8 dereferenceable(24) %4, i8 0, i64 24, i1 false)
  br label %w_reserve.exit.thread

w_reserve.exit.thread10:                          ; preds = %29
  %33 = load ptr, ptr %18, align 8, !tbaa !18
  %34 = getelementptr inbounds nuw i8, ptr %33, i64 32
  store ptr %34, ptr %12, align 8, !tbaa !14
  %35 = getelementptr i8, ptr %34, i64 %16
  %36 = getelementptr i8, ptr %34, i64 %30
  store ptr %36, ptr %6, align 8, !tbaa !16
  br label %44

w_reserve.exit:                                   ; preds = %10
  %37 = tail call i64 @fwrite(ptr noundef %13, i64 noundef 1, i64 noundef %16, ptr noundef nonnull %11)
  %38 = load ptr, ptr %12, align 8, !tbaa !14
  store ptr %38, ptr %4, align 8, !tbaa !15
  %39 = load ptr, ptr %6, align 8, !tbaa !16
  %40 = ptrtoint ptr %39 to i64
  %41 = ptrtoint ptr %38 to i64
  %42 = sub i64 %40, %41
  %43 = icmp slt i64 %42, 1
  br i1 %43, label %w_reserve.exit.thread, label %44

44:                                               ; preds = %w_reserve.exit.thread10, %w_reserve.exit, %3
  %45 = phi ptr [ %35, %w_reserve.exit.thread10 ], [ %38, %w_reserve.exit ], [ %5, %3 ]
  %46 = trunc i64 %1 to i8
  %47 = getelementptr i8, ptr %45, i64 1
  store ptr %47, ptr %4, align 8, !tbaa !15
  store i8 %46, ptr %45, align 1, !tbaa !25
  br label %w_reserve.exit.thread

w_reserve.exit.thread:                            ; preds = %8, %32, %27, %w_reserve.exit, %44
  tail call fastcc void @w_string(ptr noundef %0, i64 noundef %1, ptr noundef %2)
  ret void
}